target datalayout = "e-m:e-p270:32:32-p271:32:32-p272:64:64-i64:64-i128:128-f80:128-n8:16:32:64-S128"
target triple = "x86_64-pc-linux-gnu"

@.str.20 = private unnamed_addr constant [22 x i8] c"unable to access '%s'\00", align 1
@.str.33 = private unnamed_addr constant [1 x i8] zeroinitializer, align 1
@git_gettext_enabled = external global i32, align 4

; Function Attrs: inlinehint nounwind uwtable
define internal ptr @_(ptr noundef %0) #8 {
  %2 = alloca ptr, align 8
  %3 = alloca ptr, align 8
  store ptr %0, ptr %3, align 8, !tbaa !4
  %4 = load ptr, ptr %3, align 8, !tbaa !4
  %5 = load i8, ptr %4, align 1, !tbaa !14
  %6 = icmp ne i8 %5, 0
  br i1 %6, label %8, label %7

7:                                                ; preds = %1
  store ptr @.str.33, ptr %2, align 8
  br label %16

8:                                                ; preds = %1
  %9 = load i32, ptr @git_gettext_enabled, align 4, !tbaa !11
  %10 = icmp ne i32 %9, 0
  br i1 %10, label %13, label %11

11:                                               ; preds = %8
  %12 = load ptr, ptr %3, align 8, !tbaa !4
  store ptr %12, ptr %2, align 8
  br label %16

13:                                               ; preds = %8
  %14 = load ptr, ptr %3, align 8, !tbaa !4
  %15 = call ptr @dcgettext(ptr noundef null, ptr noundef %14, i32 noundef 5) #13
  store ptr %15, ptr %2, align 8
  br label %16

16:                                               ; preds = %13, %11, %7
  %17 = load ptr, ptr %2, align 8
  ret ptr %17
}

; Function Attrs: nounwind uwtable
define internal void @warn_on_inaccessible(ptr noundef %0) #0 {
  %2 = alloca ptr, align 8
  store ptr %0, ptr %2, align 8, !tbaa !4
  %3 = call ptr @_(ptr noundef @.str.20)
  %4 = load ptr, ptr %2, align 8, !tbaa !4
  call void (ptr, ...) @warning_errno(ptr noundef %3, ptr noundef %4)
  ret void
}

; Function Attrs: nounwind uwtable
define dso_local i32 @warn_on_fopen_errors(ptr noundef %0) #0 {
  %2 = alloca i32, align 4
  %3 = alloca ptr, align 8
  store ptr %0, ptr %3, align 8, !tbaa !4
  %4 = call ptr @__errno_location() #19
  %5 = load i32, ptr %4, align 4, !tbaa !11
  %6 = icmp ne i32 %5, 2
  br i1 %6, label %7, label %13

7:                                                ; preds = %1
  %8 = call ptr @__errno_location() #19
  %9 = load i32, ptr %8, align 4, !tbaa !11
  %10 = icmp ne i32 %9, 20
  br i1 %10, label %11, label %13

11:                                               ; preds = %7
  %12 = load ptr, ptr %3, align 8, !tbaa !4
  call void @warn_on_inaccessible(ptr noundef %12)
  store i32 -1, ptr %2, align 4
  br label %14

13:                                               ; preds = %7, %1
  store i32 0, ptr %2, align 4
  br label %14

14:                                               ; preds = %13, %11
  %15 = load i32, ptr %2, align 4
  ret i32 %15
}