; Function Attrs: nounwind uwtable
define dso_local range(i32 -1, 1) i32 @warn_on_fopen_errors(ptr noundef %0) local_unnamed_addr #0 {
  %2 = tail call ptr @__errno_location() #26
  %3 = load i32, ptr %2, align 4, !tbaa !9
  switch i32 %3, label %4 [
    i32 2, label %8
    i32 20, label %8
  ]

4:                                                ; preds = %1
  %5 = load i32, ptr @git_gettext_enabled, align 4, !tbaa !9
  %.not4.i.i = icmp eq i32 %5, 0
  br i1 %.not4.i.i, label %warn_on_inaccessible.exit, label %6

6:                                                ; preds = %4
  %7 = tail call ptr @dcgettext(ptr noundef null, ptr noundef nonnull @.str.20, i32 noundef 5) #20
  br label %warn_on_inaccessible.exit

warn_on_inaccessible.exit:                        ; preds = %4, %6
  %.0.i.i = phi ptr [ %7, %6 ], [ @.str.20, %4 ]
  tail call void (ptr, ...) @warning_errno(ptr noundef %.0.i.i, ptr noundef %0) #20
  br label %8

8:                                                ; preds = %1, %1, %warn_on_inaccessible.exit
  %.0 = phi i32 [ -1, %warn_on_inaccessible.exit ], [ 0, %1 ], [ 0, %1 ]
  ret i32 %.0
}